(lp0
(V/m/0jbk
p1
VAnimal
p2
I44
I10
I8
I22
I84
I2388
I-12
tp3
a(V/m/01yrx
p4
VAnimal > Domestic animals, pets > Cat
p5
I57
I8
I9
I22
I96
I743
I-24
tp6
a(V/m/07rjwbb
p7
VAnimal > Domestic animals, pets > Cat > Hiss
p8
I46
I5
I16
I52
I119
I980
I-47
tp9
a(V/m/07qrkrw
p10
VAnimal > Domestic animals, pets > Cat > Meow
p11
I51
I6
I4
I33
I94
I346
I-22
tp12
a(V/m/02yds9
p13
VAnimal > Domestic animals, pets > Cat > Purr
p14
I55
I6
I7
I16
I84
I228
I-12
tp15
a(V/m/0bt9lr
p16
VAnimal > Domestic animals, pets > Dog
p17
I173
I25
I6
I36
I240
I1444
I-168
tp18
a(V/m/05tny_
p19
VAnimal > Domestic animals, pets > Dog > Bark
p20
I117
I26
I0
I25
I168
I910
I-96
tp21
a(V/m/0ghcn6
p22
VAnimal > Domestic animals, pets > Dog > Growling
p23
I28
I10
I5
I42
I85
I429
I-13
tp24
a(V/m/07qf0zm
p25
VAnimal > Domestic animals, pets > Dog > Howl
p26
I45
I5
I2
I40
I92
I548
I-20
tp27
a(V/m/01xq0k1
p28
VAnimal > Livestock, farm animals, working animals > Cattle, bovinae
p29
I33
I3
I5
I43
I84
I197
I-12
tp30
a(V/m/0239kh
p31
VAnimal > Livestock, farm animals, working animals > Cattle, bovinae > Cowbell
p32
I70
I4
I0
I34
I108
I339
I-36
tp33
a(V/m/07rpkh9
p34
VAnimal > Livestock, farm animals, working animals > Cattle, bovinae > Moo
p35
I8
I0
I0
I4
I12
I70
I58
tp36
a(V/m/09b5t
p37
VAnimal > Livestock, farm animals, working animals > Fowl > Chicken, rooster
p38
I12
I0
I0
I0
I12
I278
I60
tp39
a(V/m/07st89h
p40
VAnimal > Livestock, farm animals, working animals > Fowl > Chicken, rooster > Cluck
p41
I30
I6
I6
I10
I52
I52
I0
tp42
a(V/m/07qn5dc
p43
VAnimal > Livestock, farm animals, working animals > Fowl > Chicken, rooster > Crowing, cock-a-doodle-doo
p44
I5
I0
I0
I7
I12
I198
I60
tp45
a(V/m/09ddx
p46
VAnimal > Livestock, farm animals, working animals > Fowl > Duck
p47
I5
I0
I1
I6
I12
I221
I60
tp48
a(V/m/0dbvp
p49
VAnimal > Livestock, farm animals, working animals > Fowl > Goose
p50
I9
I0
I2
I1
I12
I115
I60
tp51
a(V/m/03fwl
p52
VAnimal > Livestock, farm animals, working animals > Goat
p53
I8
I0
I1
I3
I12
I83
I60
tp54
a(V/m/07q0h5t
p55
VAnimal > Livestock, farm animals, working animals > Goat > Bleat
p56
I11
I0
I0
I1
I12
I69
I57
tp57
a(V/m/03k3r
p58
VAnimal > Livestock, farm animals, working animals > Horse
p59
I2
I0
I0
I10
I12
I388
I60
tp60
a(V/m/07rv9rh
p61
VAnimal > Livestock, farm animals, working animals > Horse > Clip-clop
p62
I15
I0
I3
I6
I24
I114
I48
tp63
a(V/m/068zj
p64
VAnimal > Livestock, farm animals, working animals > Pig
p65
I8
I0
I0
I3
I11
I143
I61
tp66
a(V/t/dd00018
p67
VAnimal > Livestock, farm animals, working animals > Pig > Oink
p68
I50
I2
I2
I11
I65
I65
I0
tp69
a(V/m/07bgp
p70
VAnimal > Livestock, farm animals, working animals > Sheep
p71
I5
I0
I2
I5
I12
I126
I60
tp72
a(V/m/015p6
p73
VAnimal > Wild animals > Bird
p74
I238
I43
I3
I40
I324
I4374
I-252
tp75
a(V/m/05_wcq
p76
VAnimal > Wild animals > Bird > Bird flight, flapping wings
p77
I5
I0
I3
I4
I12
I180
I60
tp78
a(V/m/020bb7
p79
VAnimal > Wild animals > Bird > Bird vocalization, bird call, bird song
p80
I7
I0
I1
I4
I12
I1022
I60
tp81
a(V/m/07pggtn
p82
VAnimal > Wild animals > Bird > Bird vocalization, bird call, bird song > Chirp, tweet
p83
I8
I0
I1
I3
I12
I404
I60
tp84
a(V/m/04s8yn
p85
VAnimal > Wild animals > Bird > Crow
p86
I3
I0
I2
I7
I12
I285
I60
tp87
a(V/m/01dwxx
p88
VAnimal > Wild animals > Bird > Gull, seagull
p89
I8
I0
I1
I3
I12
I217
I60
tp90
a(V/m/09d5_
p91
VAnimal > Wild animals > Bird > Owl
p92
I5
I0
I3
I4
I12
I112
I60
tp93
a(V/m/07r_80w
p94
VAnimal > Wild animals > Bird > Owl > Hoot
p95
I23
I0
I2
I15
I40
I40
I0
tp96
a(V/m/0h0rv
p97
VAnimal > Wild animals > Bird > Pigeon, dove
p98
I6
I0
I2
I4
I12
I130
I60
tp99
a(V/m/01z5f
p100
VAnimal > Wild animals > Canidae, dogs, wolves
p101
I111
I0
I0
I9
I120
I411
I-48
tp102
a(V/m/09ld4
p103
VAnimal > Wild animals > Frog
p104
I7
I0
I1
I4
I12
I463
I60
tp105
a(V/m/07st88b
p106
VAnimal > Wild animals > Frog > Croak
p107
I4
I0
I0
I8
I12
I119
I60
tp108
a(V/m/03vt0
p109
VAnimal > Wild animals > Insect
p110
I72
I36
I13
I11
I132
I1030
I-60
tp111
a(V/m/01h3n
p112
VAnimal > Wild animals > Insect > Bee, wasp, etc.
p113
I5
I0
I0
I7
I12
I252
I60
tp114
a(V/m/09xqv
p115
VAnimal > Wild animals > Insect > Cricket
p116
I9
I0
I1
I2
I12
I920
I60
tp117
a(V/m/0h2mp
p118
VAnimal > Wild animals > Insect > Fly, housefly
p119
I15
I7
I18
I32
I72
I340
I0
tp120
a(V/m/07pjwq1
p121
VAnimal > Wild animals > Insect > Fly, housefly > Buzz
p122
I15
I0
I3
I6
I24
I1378
I48
tp123
a(V/m/09f96
p124
VAnimal > Wild animals > Insect > Mosquito
p125
I15
I8
I7
I13
I43
I43
I0
tp126
a(V/m/04cvmfc
p127
VAnimal > Wild animals > Roaring cats (lions, tigers) > Roar
p128
I5
I0
I1
I6
I12
I274
I60
tp129
a(V/m/06hps
p130
VAnimal > Wild animals > Rodents, rats, mice
p131
I22
I4
I6
I45
I77
I77
I-5
tp132
a(V/m/07qn4z3
p133
VAnimal > Wild animals > Snake > Rattle
p134
I17
I0
I4
I3
I24
I1228
I48
tp135
a(V/m/01jnbd
p136
VChannel, environment and background > Acoustic environment > Echo
p137
I179
I130
I10
I197
I516
I1890
I-444
tp138
a(V/t/dd00126
p139
VChannel, environment and background > Acoustic environment > Inside, large room or hall
p140
I62
I15
I5
I38
I120
I450
I-48
tp141
a(V/t/dd00127
p142
VChannel, environment and background > Acoustic environment > Inside, public space
p143
I74
I10
I4
I20
I108
I791
I-36
tp144
a(V/t/dd00129
p145
VChannel, environment and background > Acoustic environment > Outside, rural or natural
p146
I45
I17
I2
I32
I96
I4634
I-24
tp147
a(V/t/dd00128
p148
VChannel, environment and background > Acoustic environment > Outside, urban or manmade
p149
I59
I19
I1
I29
I108
I2570
I-36
tp150
a(V/m/01b9nn
p151
VChannel, environment and background > Acoustic environment > Reverberation
p152
I64
I15
I3
I26
I108
I3238
I-36
tp153
a(V/m/096m7z
p154
VChannel, environment and background > Noise
p155
I17
I1
I7
I23
I48
I16326
I24
tp156
a(V/m/093_4n
p157
VChannel, environment and background > Noise > Background noise
p158
I0
I0
I8
I4
I12
I2617
I60
tp159
a(V/m/0g12c5
p160
VChannel, environment and background > Noise > Background noise > Distortion
p161
I12
I0
I10
I2
I24
I4024
I48
tp162
a(V/m/06xkwv
p163
VChannel, environment and background > Noise > Background noise > Mains hum
p164
I0
I0
I6
I6
I12
I196
I60
tp165
a(V/m/07rgkc5
p166
VChannel, environment and background > Noise > Background noise > Static
p167
I2
I0
I3
I7
I12
I5740
I60
tp168
a(V/m/09d1b1
p169
VChannel, environment and background > Noise > Background noise > Tape hiss
p170
I3
I0
I4
I5
I12
I63
I51
tp171
a(V/m/0cj0r
p172
VChannel, environment and background > Noise > Pink noise
p173
I3
I0
I3
I6
I12
I61
I49
tp174
a(V/m/01jwx6
p175
VChannel, environment and background > Noise > Vibration
p176
I12
I0
I4
I8
I24
I598
I48
tp177
a(V/m/0chx_
p178
VChannel, environment and background > Noise > White noise
p179
I11
I0
I6
I7
I24
I760
I48
tp180
a(V/m/0174nj
p181
VChannel, environment and background > Sound reproduction > Gramophone record
p182
I7
I0
I2
I3
I12
I943
I60
tp183
a(V/m/0cfpc
p184
VChannel, environment and background > Sound reproduction > Loudspeaker
p185
I4
I0
I4
I4
I12
I270
I60
tp186
a(V/m/06bz3
p187
VChannel, environment and background > Sound reproduction > Radio
p188
I2
I0
I4
I6
I12
I2234
I60
tp189
a(V/m/025l19
p190
VChannel, environment and background > Sound reproduction > Recording
p191
I9
I0
I0
I3
I12
I4538
I60
tp192
a(V/m/07hvw1
p193
VChannel, environment and background > Sound reproduction > Recording > Field recording
p194
I19
I0
I3
I2
I24
I17903
I48
tp195
a(V/m/0dgw9r
p196
VHuman sounds
p197
I15
I0
I3
I6
I24
I3818
I48
tp198
a(V/m/03q5_w
p199
VHuman sounds > Digestive > Burping, eructation
p200
I9
I0
I1
I2
I12
I400
I60
tp201
a(V/m/03cczk
p202
VHuman sounds > Digestive > Chewing, mastication
p203
I11
I0
I0
I1
I12
I622
I60
tp204
a(V/m/02_nn
p205
VHuman sounds > Digestive > Fart
p206
I11
I0
I1
I0
I12
I898
I60
tp207
a(V/m/0939n_
p208
VHuman sounds > Digestive > Gargling
p209
I18
I4
I0
I26
I48
I60
I12
tp210
a(V/m/01g90h
p211
VHuman sounds > Digestive > Stomach rumble
p212
I57
I1
I1
I1
I60
I60
I0
tp213
a(V/m/0k65p
p214
VHuman sounds > Hands
p215
I30
I0
I0
I42
I72
I1105
I0
tp216
a(V/m/0l15bq
p217
VHuman sounds > Hands > Clapping
p218
I53
I7
I1
I83
I144
I1819
I-72
tp219
a(V/m/025_jnm
p220
VHuman sounds > Hands > Finger snapping
p221
I133
I1
I0
I10
I144
I232
I-72
tp222
a(V/m/01jg02
p223
VHuman sounds > Heart sounds, heartbeat
p224
I30
I2
I5
I35
I72
I304
I0
tp225
a(V/m/028ght
p226
VHuman sounds > Human group actions > Applause
p227
I57
I7
I2
I6
I72
I662
I0
tp228
a(V/m/07rkbfh
p229
VHuman sounds > Human group actions > Chatter
p230
I19
I9
I1
I43
I72
I323
I0
tp231
a(V/m/053hz1
p232
VHuman sounds > Human group actions > Cheering
p233
I29
I6
I7
I30
I72
I626
I0
tp234
a(V/t/dd00013
p235
VHuman sounds > Human group actions > Children playing
p236
I51
I6
I2
I13
I72
I135
I0
tp237
a(V/m/03qtwd
p238
VHuman sounds > Human group actions > Crowd
p239
I35
I8
I6
I23
I72
I1580
I0
tp240
a(V/m/06h7j
p241
VHuman sounds > Human locomotion > Run
p242
I18
I2
I3
I49
I72
I1178
I0
tp243
a(V/m/07pbtc8
p244
VHuman sounds > Human locomotion > Walk, footsteps
p245
I61
I11
I6
I30
I108
I4472
I-36
tp246
a(V/m/09l8g
p247
VHuman sounds > Human voice
p248
I92
I41
I15
I20
I168
I15969
I-96
tp249
a(V/m/0463cq4
p250
VHuman sounds > Human voice > Crying, sobbing
p251
I20
I3
I2
I35
I60
I529
I12
tp252
a(V/t/dd00002
p253
VHuman sounds > Human voice > Crying, sobbing > Baby cry, infant cry
p254
I87
I9
I11
I13
I120
I145
I-48
tp255
a(V/m/07r4k75
p256
VHuman sounds > Human voice > Grunt
p257
I46
I9
I4
I4
I63
I51
I-12
tp258
a(V/m/01j3sz
p259
VHuman sounds > Human voice > Laughter
p260
I64
I9
I2
I9
I84
I1529
I-12
tp261
a(V/t/dd00001
p262
VHuman sounds > Human voice > Laughter > Baby laughter
p263
I45
I2
I6
I18
I71
I71
I0
tp264
a(V/m/07rgt08
p265
VHuman sounds > Human voice > Laughter > Chuckle, chortle
p266
I9
I0
I0
I3
I12
I105
I60
tp267
a(V/m/07r660_
p268
VHuman sounds > Human voice > Laughter > Giggle
p269
I8
I0
I3
I1
I12
I288
I60
tp270
a(V/m/03qc9zr
p271
VHuman sounds > Human voice > Screaming
p272
I7
I0
I1
I4
I12
I1757
I60
tp273
a(V/m/07p6fty
p274
VHuman sounds > Human voice > Shout
p275
I7
I0
I3
I2
I12
I294
I60
tp276
a(V/t/dd00135
p277
VHuman sounds > Human voice > Shout > Children shouting
p278
I5
I0
I3
I4
I12
I73
I60
tp279
a(V/m/07sr1lc
p280
VHuman sounds > Human voice > Shout > Yell
p281
I168
I3
I5
I64
I240
I725
I-168
tp282
a(V/m/07plz5l
p283
VHuman sounds > Human voice > Sigh
p284
I6
I0
I4
I2
I12
I172
I60
tp285
a(V/m/015lz1
p286
VHuman sounds > Human voice > Singing
p287
I60
I10
I4
I34
I108
I1117
I-36
tp288
a(V/m/02bk07
p289
VHuman sounds > Human voice > Singing > Chant
p290
I40
I13
I12
I55
I120
I274
I-48
tp291
a(V/t/dd00005
p292
VHuman sounds > Human voice > Singing > Child singing
p293
I34
I14
I5
I7
I60
I60
I0
tp294
a(V/m/0l14jd
p295
VHuman sounds > Human voice > Singing > Choir
p296
I36
I10
I16
I70
I132
I329
I-60
tp297
a(V/t/dd00004
p298
VHuman sounds > Human voice > Singing > Female singing
p299
I59
I22
I9
I18
I108
I236
I-36
tp300
a(V/t/dd00003
p301
VHuman sounds > Human voice > Singing > Male singing
p302
I64
I28
I7
I9
I108
I165
I-36
tp303
a(V/m/06bxc
p304
VHuman sounds > Human voice > Singing > Rapping
p305
I2
I10
I1
I95
I108
I547
I-36
tp306
a(V/t/dd00006
p307
VHuman sounds > Human voice > Singing > Synthetic singing
p308
I39
I0
I3
I4
I46
I46
I0
tp309
a(V/m/09x0r
p310
VHuman sounds > Human voice > Speech
p311
I61
I21
I9
I17
I108
I6865
I-36
tp312
a(V/m/0261r1
p313
VHuman sounds > Human voice > Speech > Babbling
p314
I49
I3
I8
I48
I108
I195
I-36
tp315
a(V/m/0ytgt
p316
VHuman sounds > Human voice > Speech > Child speech, kid speaking
p317
I56
I14
I7
I31
I108
I320
I-36
tp318
a(V/m/01h8n0
p319
VHuman sounds > Human voice > Speech > Conversation
p320
I25
I59
I5
I31
I120
I611
I-48
tp321
a(V/m/02zsn
p322
VHuman sounds > Human voice > Speech > Female speech, woman speaking
p323
I80
I6
I3
I19
I108
I2884
I-36
tp324
a(V/m/05zppz
p325
VHuman sounds > Human voice > Speech > Male speech, man speaking
p326
I68
I12
I8
I44
I132
I1781
I-60
tp327
a(V/m/0brhx
p328
VHuman sounds > Human voice > Speech > Speech synthesizer
p329
I36
I1
I11
I60
I108
I154
I-36
tp330
a(V/m/07qw_06
p331
VHuman sounds > Human voice > Wail, moan
p332
I56
I6
I14
I29
I105
I105
I-33
tp333
a(V/m/02rtxlg
p334
VHuman sounds > Human voice > Whispering
p335
I83
I5
I5
I123
I216
I698
I-144
tp336
a(V/m/01j423
p337
VHuman sounds > Human voice > Yawn
p338
I33
I3
I5
I7
I48
I48
I0
tp339
a(V/m/0lyf6
p340
VHuman sounds > Respiratory sounds > Breathing
p341
I48
I7
I7
I34
I96
I1701
I-24
tp342
a(V/m/07s0dtb
p343
VHuman sounds > Respiratory sounds > Breathing > Gasp
p344
I25
I1
I1
I57
I84
I209
I-12
tp345
a(V/m/01d3sd
p346
VHuman sounds > Respiratory sounds > Breathing > Snoring
p347
I38
I3
I3
I52
I96
I207
I-24
tp348
a(V/m/01b_21
p349
VHuman sounds > Respiratory sounds > Cough
p350
I70
I5
I1
I20
I96
I370
I-24
tp351
a(V/m/0dl9sf8
p352
VHuman sounds > Respiratory sounds > Cough > Throat clearing
p353
I37
I2
I2
I6
I47
I47
I0
tp354
a(V/m/01hsr_
p355
VHuman sounds > Respiratory sounds > Sneeze
p356
I61
I5
I0
I30
I96
I164
I-24
tp357
a(V/m/07ppn3j
p358
VHuman sounds > Respiratory sounds > Sniff
p359
I75
I9
I1
I31
I116
I92
I-44
tp360
a(V/t/dd00032
p361
VMusic > Music mood > Funny music
p362
I11
I12
I8
I25
I56
I56
I0
tp363
a(V/t/dd00031
p364
VMusic > Music mood > Happy music
p365
I19
I20
I7
I25
I71
I71
I0
tp366
a(V/t/dd00033
p367
VMusic > Music mood > Sad music
p368
I34
I13
I1
I21
I69
I69
I0
tp369
a(V/t/dd00037
p370
VMusic > Music mood > Scary music
p371
I55
I52
I2
I47
I156
I179
I-84
tp372
a(V/m/0ggx5q
p373
VMusic > Music role > Dance music
p374
I18
I8
I15
I43
I84
I1121
I-12
tp375
a(V/m/03r5q_
p376
VMusic > Music role > Jingle (music)
p377
I28
I23
I5
I28
I84
I143
I-12
tp378
a(V/m/0l14gg
p379
VMusic > Music role > Soundtrack music
p380
I32
I29
I0
I11
I72
I2121
I0
tp381
a(V/m/02cjck
p382
VMusic > Music role > Theme music
p383
I20
I19
I5
I34
I78
I78
I-6
tp384
a(V/m/021wwz
p385
VMusic > Musical concepts > Bassline
p386
I46
I11
I1
I26
I84
I697
I-12
tp387
a(V/m/022c7z
p388
VMusic > Musical concepts > Beat
p389
I65
I6
I0
I37
I108
I9423
I-36
tp390
a(V/m/05xp3j
p391
VMusic > Musical concepts > Beat > Drum beat
p392
I51
I58
I1
I166
I276
I743
I-204
tp393
a(V/m/01gp74
p394
VMusic > Musical concepts > Chord
p395
I65
I12
I6
I25
I108
I2798
I-36
tp396
a(V/m/03w6d1
p397
VMusic > Musical concepts > Drone
p398
I6
I0
I1
I5
I12
I4853
I60
tp399
a(V/m/0b128
p400
VMusic > Musical concepts > Harmony
p401
I4
I0
I2
I6
I12
I1333
I60
tp402
a(V/m/0kc2j
p403
VMusic > Musical concepts > Loop
p404
I10
I2
I2
I10
I24
I18730
I48
tp405
a(V/m/09dsr
p406
VMusic > Musical concepts > Melody
p407
I4
I0
I8
I0
I12
I952
I60
tp408
a(V/m/05jcn
p409
VMusic > Musical concepts > Musical note
p410
I14
I1
I3
I6
I24
I59472
I48
tp411
a(V/m/074ft
p412
VMusic > Musical concepts > Song
p413
I4
I0
I8
I12
I24
I1140
I48
tp414
a(V/m/04szw
p415
VMusic > Musical instrument
p416
I35
I0
I3
I10
I48
I3002
I24
tp417
a(V/m/0mkg
p418
VMusic > Musical instrument > Accordion
p419
I73
I16
I2
I17
I108
I147
I-36
tp420
a(V/m/0395lw
p421
VMusic > Musical instrument > Bell
p422
I65
I6
I0
I61
I132
I3664
I-60
tp423
a(V/m/0gy1t2s
p424
VMusic > Musical instrument > Bell > Bicycle bell
p425
I177
I2
I1
I30
I210
I153
I-138
tp426
a(V/m/0f8s22
p427
VMusic > Musical instrument > Bell > Chime
p428
I38
I1
I2
I55
I96
I1258
I-24
tp429
a(V/m/026fgl
p430
VMusic > Musical instrument > Bell > Chime > Wind chime
p431
I93
I2
I0
I25
I120
I250
I-48
tp432
a(V/m/03w41f
p433
VMusic > Musical instrument > Bell > Church bell
p434
I83
I18
I0
I19
I120
I365
I-48
tp435
a(V/m/027m70_
p436
VMusic > Musical instrument > Bell > Jingle bell
p437
I39
I2
I1
I78
I120
I155
I-48
tp438
a(V/m/0l14_3
p439
VMusic > Musical instrument > Bowed string instrument
p440
I88
I1
I0
I19
I108
I622
I-36
tp441
a(V/m/01xqw
p442
VMusic > Musical instrument > Bowed string instrument > Cello
p443
I190
I9
I1
I16
I216
I1468
I-144
tp444
a(V/m/02fsn
p445
VMusic > Musical instrument > Bowed string instrument > Double bass
p446
I118
I0
I0
I14
I132
I602
I-60
tp447
a(V/m/02qmj0d
p448
VMusic > Musical instrument > Bowed string instrument > String section
p449
I30
I5
I0
I181
I216
I3381
I-144
tp450
a(V/m/07y_7
p451
VMusic > Musical instrument > Bowed string instrument > Violin, fiddle
p452
I286
I4
I3
I43
I336
I2347
I-264
tp453
a(V/m/0d8_n
p454
VMusic > Musical instrument > Bowed string instrument > Violin, fiddle > Pizzicato
p455
I167
I0
I1
I36
I204
I204
I-132
tp456
a(V/m/01kcd
p457
VMusic > Musical instrument > Brass instrument
p458
I95
I8
I7
I34
I144
I1336
I-72
tp459
a(V/m/0319l
p460
VMusic > Musical instrument > Brass instrument > French horn
p461
I46
I2
I10
I0
I58
I58
I0
tp462
a(V/m/07c6l
p463
VMusic > Musical instrument > Brass instrument > Trombone
p464
I34
I13
I11
I36
I94
I94
I-22
tp465
a(V/m/07gql
p466
VMusic > Musical instrument > Brass instrument > Trumpet
p467
I87
I7
I4
I34
I132
I1741
I-60
tp468
a(V/m/02bxd
p469
VMusic > Musical instrument > Didgeridoo
p470
I76
I4
I8
I20
I108
I145
I-36
tp471
a(V/m/03qjg
p472
VMusic > Musical instrument > Harmonica
p473
I91
I6
I4
I7
I108
I281
I-36
tp474
a(V/m/03m5k
p475
VMusic > Musical instrument > Harp
p476
I23
I11
I13
I49
I96
I404
I-24
tp477
a(V/m/05148p4
p478
VMusic > Musical instrument > Keyboard (musical)
p479
I180
I18
I14
I184
I396
I1032
I-324
tp480
a(V/m/03q5t
p481
VMusic > Musical instrument > Keyboard (musical) > Harpsichord
p482
I78
I7
I7
I4
I96
I96
I-24
tp483
a(V/m/013y1f
p484
VMusic > Musical instrument > Keyboard (musical) > Organ
p485
I42
I16
I12
I38
I108
I1097
I-36
tp486
a(V/m/03xq_f
p487
VMusic > Musical instrument > Keyboard (musical) > Organ > Electronic organ
p488
I13
I11
I4
I14
I42
I42
I0
tp489
a(V/m/05r5c
p490
VMusic > Musical instrument > Keyboard (musical) > Piano
p491
I163
I33
I7
I97
I300
I4244
I-228
tp492
a(V/m/01s0ps
p493
VMusic > Musical instrument > Keyboard (musical) > Piano > Electric piano
p494
I78
I16
I7
I19
I120
I213
I-48
tp495
a(V/m/0bxl5
p496
VMusic > Musical instrument > Keyboard (musical) > Piano > Electric piano > Rhodes piano
p497
I86
I13
I3
I6
I108
I108
I-36
tp498
a(V/m/0l14qv
p499
VMusic > Musical instrument > Keyboard (musical) > Synthesizer
p500
I190
I6
I10
I22
I228
I52935
I-156
tp501
a(V/m/01v1d8
p502
VMusic > Musical instrument > Keyboard (musical) > Synthesizer > Sampler
p503
I29
I1
I12
I30
I72
I355
I0
tp504
a(V/m/05pd6
p505
VMusic > Musical instrument > Orchestra
p506
I228
I72
I18
I260
I578
I530
I-506
tp507
a(V/m/0l14md
p508
VMusic > Musical instrument > Percussion
p509
I80
I3
I3
I22
I108
I21189
I-36
tp510
a(V/m/0bm0k
p511
VMusic > Musical instrument > Percussion > Cymbal > Crash cymbal
p512
I44
I3
I6
I43
I96
I4091
I-24
tp513
a(V/m/03qtq
p514
VMusic > Musical instrument > Percussion > Cymbal > Hi-hat
p515
I81
I5
I6
I16
I108
I1595
I-36
tp516
a(V/m/026t6
p517
VMusic > Musical instrument > Percussion > Drum
p518
I91
I14
I3
I35
I143
I29391
I-71
tp519
a(V/m/0bm02
p520
VMusic > Musical instrument > Percussion > Drum > Bass drum
p521
I86
I28
I6
I48
I168
I4151
I-96
tp522
a(V/m/06rvn
p523
VMusic > Musical instrument > Percussion > Drum > Snare drum
p524
I88
I7
I2
I11
I108
I7790
I-36
tp525
a(V/m/02k_mr
p526
VMusic > Musical instrument > Percussion > Drum > Snare drum > Drum roll
p527
I41
I8
I3
I23
I75
I75
I-3
tp528
a(V/m/01p970
p529
VMusic > Musical instrument > Percussion > Drum > Tabla
p530
I69
I7
I0
I17
I93
I185
I-21
tp531
a(V/m/011k_j
p532
VMusic > Musical instrument > Percussion > Drum > Timpani
p533
I59
I8
I3
I26
I96
I131
I-24
tp534
a(V/m/02hnl
p535
VMusic > Musical instrument > Percussion > Drum kit
p536
I73
I24
I4
I91
I192
I3149
I-120
tp537
a(V/m/0cfdd
p538
VMusic > Musical instrument > Percussion > Drum kit > Drum machine
p539
I91
I11
I1
I137
I240
I571
I-168
tp540
a(V/m/0mbct
p541
VMusic > Musical instrument > Percussion > Gong
p542
I62
I4
I0
I18
I84
I519
I-12
tp543
a(V/m/0j45pbj
p544
VMusic > Musical instrument > Percussion > Mallet percussion
p545
I35
I4
I3
I33
I75
I75
I-3
tp546
a(V/m/0dwtp
p547
VMusic > Musical instrument > Percussion > Mallet percussion > Glockenspiel
p548
I61
I2
I1
I20
I84
I182
I-12
tp549
a(V/m/0dwsp
p550
VMusic > Musical instrument > Percussion > Mallet percussion > Marimba, xylophone
p551
I48
I6
I6
I48
I108
I413
I-36
tp552
a(V/m/0dwt5
p553
VMusic > Musical instrument > Percussion > Mallet percussion > Vibraphone
p554
I56
I5
I2
I5
I68
I68
I0
tp555
a(V/m/05r5wn
p556
VMusic > Musical instrument > Percussion > Rattle (instrument)
p557
I37
I6
I4
I37
I84
I522
I-12
tp558
a(V/m/0xzly
p559
VMusic > Musical instrument > Percussion > Rattle (instrument) > Maraca
p560
I40
I9
I1
I8
I58
I47
I-11
tp561
a(V/m/07brj
p562
VMusic > Musical instrument > Percussion > Tambourine
p563
I74
I10
I2
I10
I96
I345
I-24
tp564
a(V/m/016622
p565
VMusic > Musical instrument > Percussion > Tubular bells
p566
I32
I1
I0
I21
I54
I54
I0
tp567
a(V/m/0342h
p568
VMusic > Musical instrument > Plucked string instrument > Guitar
p569
I144
I15
I31
I26
I216
I6787
I-144
tp570
a(V/m/042v_gx
p571
VMusic > Musical instrument > Plucked string instrument > Guitar > Acoustic guitar
p572
I99
I11
I5
I29
I144
I2289
I-72
tp573
a(V/m/018vs
p574
VMusic > Musical instrument > Plucked string instrument > Guitar > Bass guitar
p575
I9
I0
I3
I60
I72
I8769
I0
tp576
a(V/m/02sgy
p577
VMusic > Musical instrument > Plucked string instrument > Guitar > Electric guitar
p578
I39
I3
I6
I12
I60
I1303
I12
tp579
a(V/m/06w87
p580
VMusic > Musical instrument > Plucked string instrument > Guitar > Steel guitar, slide guitar
p581
I40
I8
I3
I21
I72
I115
I0
tp582
a(V/m/07s0s5r
p583
VMusic > Musical instrument > Plucked string instrument > Guitar > Strum
p584
I72
I3
I5
I4
I84
I295
I-12
tp585
a(V/m/0jtg0
p586
VMusic > Musical instrument > Plucked string instrument > Sitar
p587
I28
I3
I6
I10
I47
I47
I0
tp588
a(V/m/07xzm
p589
VMusic > Musical instrument > Plucked string instrument > Ukulele
p590
I65
I6
I9
I4
I84
I104
I-12
tp591
a(V/m/01hgjl
p592
VMusic > Musical instrument > Scratching (performance technique)
p593
I13
I1
I5
I53
I72
I1304
I0
tp594
a(V/m/0l14t7
p595
VMusic > Musical instrument > Singing bowl
p596
I19
I5
I10
I38
I72
I184
I0
tp597
a(V/m/07kc_
p598
VMusic > Musical instrument > Theremin
p599
I11
I12
I23
I26
I72
I137
I0
tp600
a(V/m/085jw
p601
VMusic > Musical instrument > Wind instrument, woodwind instrument
p602
I65
I0
I1
I31
I97
I97
I-25
tp603
a(V/m/01c3q
p604
VMusic > Musical instrument > Wind instrument, woodwind instrument > Bassoon
p605
I195
I20
I0
I26
I241
I241
I-169
tp606
a(V/m/01wy6
p607
VMusic > Musical instrument > Wind instrument, woodwind instrument > Clarinet
p608
I192
I6
I0
I6
I204
I1915
I-132
tp609
a(V/m/0l14j_
p610
VMusic > Musical instrument > Wind instrument, woodwind instrument > Flute
p611
I226
I8
I1
I41
I276
I1720
I-204
tp612
a(V/m/05kms
p613
VMusic > Musical instrument > Wind instrument, woodwind instrument > Oboe
p614
I141
I2
I0
I1
I144
I349
I-72
tp615
a(V/m/06ncr
p616
VMusic > Musical instrument > Wind instrument, woodwind instrument > Saxophone
p617
I153
I5
I0
I10
I168
I2677
I-96
tp618
a(V/m/02pprs
p619
VMusic > Musical instrument > Wind instrument, woodwind instrument > Saxophone > Alto saxophone
p620
I137
I6
I0
I1
I144
I243
I-72
tp621
a(V/m/03t22m
p622
VMusic > Musical instrument > Wind instrument, woodwind instrument > Saxophone > Soprano saxophone
p623
I143
I2
I0
I1
I146
I146
I-74
tp624
a(V/m/059j3w
p625
VNatural sounds
p626
I37
I9
I7
I31
I84
I4566
I-12
tp627
a(V/m/02_41
p628
VNatural sounds > Fire
p629
I22
I1
I1
I33
I57
I1323
I15
tp630
a(V/m/07pzfmf
p631
VNatural sounds > Fire > Crackle
p632
I35
I0
I7
I30
I72
I962
I0
tp633
a(V/m/0jb2l
p634
VNatural sounds > Thunderstorm
p635
I42
I14
I1
I15
I72
I757
I0
tp636
a(V/m/0ngt1
p637
VNatural sounds > Thunderstorm > Thunder
p638
I39
I10
I0
I23
I72
I1246
I0
tp639
a(V/m/0838f
p640
VNatural sounds > Water
p641
I39
I1
I1
I19
I60
I7888
I12
tp642
a(V/m/07swgks
p643
VNatural sounds > Water > Gurgling
p644
I30
I2
I2
I38
I72
I544
I0
tp645
a(V/m/05kq4
p646
VNatural sounds > Water > Ocean
p647
I31
I3
I2
I36
I72
I2067
I0
tp648
a(V/m/034srq
p649
VNatural sounds > Water > Ocean > Waves, surf
p650
I175
I15
I6
I284
I480
I1926
I-408
tp651
a(V/m/06mb1
p652
VNatural sounds > Water > Rain
p653
I39
I11
I2
I20
I72
I1874
I0
tp654
a(V/t/dd00038
p655
VNatural sounds > Water > Rain > Rain on surface
p656
I48
I6
I1
I17
I72
I133
I0
tp657
a(V/m/07r10fb
p658
VNatural sounds > Water > Rain > Raindrop
p659
I12
I2
I0
I46
I60
I2547
I12
tp660
a(V/m/0j6m2
p661
VNatural sounds > Water > Stream
p662
I46
I2
I3
I21
I72
I1323
I0
tp663
a(V/m/0j2kx
p664
VNatural sounds > Water > Waterfall
p665
I45
I0
I3
I12
I60
I299
I12
tp666
a(V/m/03m9d0z
p667
VNatural sounds > Wind
p668
I17
I6
I0
I49
I72
I3490
I0
tp669
a(V/m/07q8f3b
p670
VNatural sounds > Wind > Howl (wind)
p671
I31
I16
I1
I24
I72
I87
I0
tp672
a(V/m/09t49
p673
VNatural sounds > Wind > Rustling leaves
p674
I22
I10
I1
I41
I74
I74
I-2
tp675
a(V/m/07pp_mv
p676
VSounds of things > Alarm
p677
I49
I19
I11
I5
I84
I1161
I-12
tp678
a(V/m/046dlr
p679
VSounds of things > Alarm > Alarm clock
p680
I9
I0
I0
I3
I12
I145
I60
tp681
a(V/m/030rvx
p682
VSounds of things > Alarm > Buzzer
p683
I6
I0
I0
I6
I12
I92
I60
tp684
a(V/m/0c3f7m
p685
VSounds of things > Alarm > Fire alarm
p686
I5
I0
I0
I7
I12
I74
I60
tp687
a(V/m/03kmc9
p688
VSounds of things > Alarm > Siren
p689
I9
I0
I0
I3
I12
I248
I60
tp690
a(V/m/07cx4
p691
VSounds of things > Alarm > Telephone
p692
I8
I0
I0
I4
I12
I1801
I60
tp693
a(V/m/01sb50
p694
VSounds of things > Alarm > Telephone > Cellphone buzz, vibrating alert
p695
I4
I0
I0
I8
I12
I195
I60
tp696
a(V/m/015jpf
p697
VSounds of things > Alarm > Telephone > Dial tone
p698
I110
I9
I3
I18
I140
I128
I-68
tp699
a(V/m/01hnzm
p700
VSounds of things > Alarm > Telephone > Ringtone
p701
I9
I0
I1
I2
I12
I444
I60
tp702
a(V/m/07pp8cl
p703
VSounds of things > Alarm > Telephone > Telephone bell ringing
p704
I4
I0
I1
I7
I12
I516
I60
tp705
a(V/m/02c8p
p706
VSounds of things > Alarm > Telephone > Telephone dialing, DTMF
p707
I9
I0
I0
I3
I12
I204
I60
tp708
a(V/m/06hck5
p709
VSounds of things > Alarm > Whistle > Steam whistle
p710
I34
I3
I5
I1
I43
I43
I0
tp711
a(V/t/dd00071
p712
VSounds of things > Domestic sounds, home sounds
p713
I63
I1
I21
I23
I108
I1589
I-36
tp714
a(V/m/03dnzn
p715
VSounds of things > Domestic sounds, home sounds > Bathtub (filling or washing)
p716
I28
I14
I11
I67
I120
I986
I-48
tp717
a(V/m/02pjr4
p718
VSounds of things > Domestic sounds, home sounds > Blender
p719
I54
I4
I0
I4
I62
I62
I0
tp720
a(V/m/07pn_8q
p721
VSounds of things > Domestic sounds, home sounds > Chopping (food)
p722
I34
I13
I3
I58
I108
I211
I-36
tp723
a(V/m/0242l
p724
VSounds of things > Domestic sounds, home sounds > Coin (dropping)
p725
I35
I33
I9
I43
I120
I1168
I-48
tp726
a(V/m/0642b4
p727
VSounds of things > Domestic sounds, home sounds > Cupboard open or close
p728
I46
I11
I11
I40
I108
I303
I-36
tp729
a(V/m/023pjk
p730
VSounds of things > Domestic sounds, home sounds > Cutlery, silverware
p731
I38
I12
I6
I76
I132
I1451
I-60
tp732
a(V/m/04brg2
p733
VSounds of things > Domestic sounds, home sounds > Dishes, pots, and pans
p734
I30
I10
I6
I62
I108
I2648
I-36
tp735
a(V/m/02dgv
p736
VSounds of things > Domestic sounds, home sounds > Door
p737
I74
I10
I23
I13
I120
I4717
I-48
tp738
a(V/m/03wwcy
p739
VSounds of things > Domestic sounds, home sounds > Door > Doorbell
p740
I24
I0
I30
I66
I120
I1268
I-48
tp741
a(V/m/07r67yg
p742
VSounds of things > Domestic sounds, home sounds > Door > Doorbell > Ding-dong
p743
I72
I10
I40
I46
I168
I168
I-96
tp744
a(V/m/07r4wb8
p745
VSounds of things > Domestic sounds, home sounds > Door > Knock
p746
I69
I5
I22
I10
I106
I438
I-34
tp747
a(V/m/07rjzl8
p748
VSounds of things > Domestic sounds, home sounds > Door > Slam
p749
I16
I1
I15
I88
I120
I2436
I-48
tp750
a(V/m/02y_763
p751
VSounds of things > Domestic sounds, home sounds > Door > Sliding door
p752
I19
I7
I28
I54
I108
I1853
I-36
tp753
a(V/m/07q6cd_
p754
VSounds of things > Domestic sounds, home sounds > Door > Squeak
p755
I86
I17
I16
I13
I132
I2233
I-60
tp756
a(V/m/07qcpgn
p757
VSounds of things > Domestic sounds, home sounds > Door > Tap
p758
I73
I3
I25
I24
I125
I880
I-53
tp759
a(V/m/0fqfqc
p760
VSounds of things > Domestic sounds, home sounds > Drawer open or close
p761
I91
I20
I14
I7
I132
I273
I-60
tp762
a(V/m/02g901
p763
VSounds of things > Domestic sounds, home sounds > Electric shaver, electric razor
p764
I40
I2
I5
I2
I49
I49
I0
tp765
a(V/m/0dxrf
p766
VSounds of things > Domestic sounds, home sounds > Frying (food)
p767
I20
I7
I2
I55
I84
I623
I-12
tp768
a(V/m/03wvsk
p769
VSounds of things > Domestic sounds, home sounds > Hair dryer
p770
I57
I2
I0
I4
I63
I63
I0
tp771
a(V/m/03v3yw
p772
VSounds of things > Domestic sounds, home sounds > Keys jangling
p773
I43
I19
I2
I20
I84
I330
I-12
tp774
a(V/m/0fx9l
p775
VSounds of things > Domestic sounds, home sounds > Microwave oven
p776
I46
I2
I5
I7
I60
I300
I12
tp777
a(V/m/05mxj0q
p778
VSounds of things > Domestic sounds, home sounds > Packing tape, duct tape
p779
I42
I12
I2
I16
I72
I150
I0
tp780
a(V/m/01lsmm
p781
VSounds of things > Domestic sounds, home sounds > Scissors
p782
I49
I11
I2
I10
I72
I200
I0
tp783
a(V/m/05rj2
p784
VSounds of things > Domestic sounds, home sounds > Shuffling cards
p785
I41
I3
I1
I2
I47
I47
I0
tp786
a(V/m/0130jx
p787
VSounds of things > Domestic sounds, home sounds > Sink (filling or washing)
p788
I3
I0
I7
I2
I12
I1009
I60
tp789
a(V/m/01jt3m
p790
VSounds of things > Domestic sounds, home sounds > Toilet flush
p791
I11
I0
I0
I1
I12
I485
I60
tp792
a(V/m/012xff
p793
VSounds of things > Domestic sounds, home sounds > Toothbrush
p794
I8
I0
I3
I1
I12
I93
I60
tp795
a(V/m/0316dw
p796
VSounds of things > Domestic sounds, home sounds > Typing
p797
I62
I4
I2
I16
I84
I515
I-12
tp798
a(V/m/01m2v
p799
VSounds of things > Domestic sounds, home sounds > Typing > Computer keyboard
p800
I82
I6
I0
I8
I96
I259
I-24
tp801
a(V/m/0c2wf
p802
VSounds of things > Domestic sounds, home sounds > Typing > Typewriter
p803
I57
I3
I1
I23
I84
I155
I-12
tp804
a(V/m/0d31p
p805
VSounds of things > Domestic sounds, home sounds > Vacuum cleaner
p806
I51
I2
I4
I27
I84
I192
I-12
tp807
a(V/m/0zmy2j9
p808
VSounds of things > Domestic sounds, home sounds > Velcro, hook and loop fastener
p809
I74
I4
I2
I7
I87
I87
I-15
tp810
a(V/m/02jz0l
p811
VSounds of things > Domestic sounds, home sounds > Water tap, faucet
p812
I17
I0
I0
I7
I24
I684
I48
tp813
a(V/m/081rb
p814
VSounds of things > Domestic sounds, home sounds > Writing
p815
I131
I0
I1
I24
I156
I505
I-84
tp816
a(V/m/01s0vc
p817
VSounds of things > Domestic sounds, home sounds > Zipper (clothing)
p818
I6
I0
I0
I6
I12
I500
I60
tp819
a(V/m/02mk9
p820
VSounds of things > Engine
p821
I57
I12
I3
I24
I96
I4063
I-24
tp822
a(V/m/07q2z82
p823
VSounds of things > Engine > Accelerating, revving, vroom
p824
I22
I16
I3
I43
I84
I541
I-12
tp825
a(V/t/dd00130
p826
VSounds of things > Engine > Engine starting
p827
I17
I6
I0
I13
I36
I329
I36
tp828
a(V/m/07pb8fc
p829
VSounds of things > Engine > Idling
p830
I6
I0
I0
I6
I12
I176
I60
tp831
a(V/t/dd00065
p832
VSounds of things > Engine > Light engine (high frequency)
p833
I6
I0
I0
I6
I12
I231
I60
tp834
a(V/m/01j4z9
p835
VSounds of things > Engine > Light engine (high frequency) > Chainsaw
p836
I20
I0
I1
I3
I24
I58
I34
tp837
a(V/m/01yg9g
p838
VSounds of things > Engine > Light engine (high frequency) > Lawn mower
p839
I11
I0
I0
I1
I12
I78
I60
tp840
a(V/t/dd00066
p841
VSounds of things > Engine > Medium engine (mid frequency)
p842
I3
I0
I0
I9
I12
I112
I60
tp843
a(V/m/014zdl
p844
VSounds of things > Explosion
p845
I47
I5
I6
I62
I120
I1737
I-48
tp846
a(V/m/07qqyl4
p847
VSounds of things > Explosion > Boom
p848
I25
I7
I7
I45
I84
I451
I-12
tp849
a(V/m/07qsvvw
p850
VSounds of things > Explosion > Burst, pop
p851
I47
I1
I4
I18
I70
I58
I-12
tp852
a(V/m/0g6b5
p853
VSounds of things > Explosion > Fireworks
p854
I40
I4
I5
I23
I72
I702
I0
tp855
a(V/g/122z_qxw
p856
VSounds of things > Explosion > Fireworks > Firecracker
p857
I15
I16
I1
I28
I60
I126
I12
tp858
a(V/m/032s66
p859
VSounds of things > Explosion > Gunshot, gunfire
p860
I197
I24
I19
I240
I480
I1477
I-408
tp861
a(V/m/0_1c
p862
VSounds of things > Explosion > Gunshot, gunfire > Artillery fire
p863
I20
I2
I2
I27
I51
I51
I0
tp864
a(V/m/04zjc
p865
VSounds of things > Explosion > Gunshot, gunfire > Machine gun
p866
I44
I3
I1
I36
I84
I195
I-12
tp867
a(V/m/039jq
p868
VSounds of things > Glass
p869
I77
I4
I1
I14
I96
I3016
I-24
tp870
a(V/m/07q7njn
p871
VSounds of things > Glass > Chink, clink
p872
I32
I8
I1
I55
I96
I588
I-24
tp873
a(V/m/07rn7sz
p874
VSounds of things > Glass > Shatter
p875
I76
I3
I0
I17
I96
I686
I-24
tp876
a(V/m/04k94
p877
VSounds of things > Liquid
p878
I75
I6
I2
I13
I96
I1325
I-24
tp879
a(V/m/0dv3j
p880
VSounds of things > Liquid > Boiling
p881
I48
I6
I5
I25
I84
I292
I-12
tp882
a(V/m/07r5v4s
p883
VSounds of things > Liquid > Drip
p884
I42
I14
I5
I23
I84
I1036
I-12
tp885
a(V/m/07p7b8y
p886
VSounds of things > Liquid > Fill (with liquid)
p887
I65
I3
I2
I14
I84
I162
I-12
tp888
a(V/m/07pqc89
p889
VSounds of things > Liquid > Pour > Trickle, dribble
p890
I53
I1
I2
I28
I84
I305
I-12
tp891
a(V/m/07rrlb6
p892
VSounds of things > Liquid > Splash, splatter
p893
I49
I4
I17
I14
I84
I1127
I-12
tp894
a(V/m/07p6mqd
p895
VSounds of things > Liquid > Splash, splatter > Slosh
p896
I35
I2
I9
I14
I60
I60
I0
tp897
a(V/t/dd00077
p898
VSounds of things > Mechanisms
p899
I22
I0
I0
I2
I24
I1041
I48
tp900
a(V/m/025wky1
p901
VSounds of things > Mechanisms > Air conditioning
p902
I45
I2
I9
I16
I72
I115
I0
tp903
a(V/m/0dv5r
p904
VSounds of things > Mechanisms > Camera
p905
I63
I1
I7
I25
I96
I503
I-24
tp906
a(V/m/024dl
p907
VSounds of things > Mechanisms > Cash register
p908
I44
I14
I26
I12
I96
I106
I-24
tp909
a(V/m/01x3z
p910
VSounds of things > Mechanisms > Clock
p911
I63
I7
I8
I18
I96
I904
I-24
tp912
a(V/m/07qjznt
p913
VSounds of things > Mechanisms > Clock > Tick
p914
I28
I4
I16
I48
I96
I869
I-24
tp915
a(V/m/07qjznl
p916
VSounds of things > Mechanisms > Clock > Tick-tock
p917
I49
I10
I2
I35
I96
I311
I-24
tp918
a(V/m/0l7xg
p919
VSounds of things > Mechanisms > Gears
p920
I40
I4
I6
I34
I84
I197
I-12
tp921
a(V/m/02x984l
p922
VSounds of things > Mechanisms > Mechanical fan
p923
I41
I1
I33
I21
I96
I285
I-24
tp924
a(V/m/01m4t
p925
VSounds of things > Mechanisms > Printer
p926
I51
I2
I8
I23
I84
I275
I-12
tp927
a(V/m/02bm9n
p928
VSounds of things > Mechanisms > Ratchet, pawl
p929
I57
I1
I15
I11
I84
I119
I-12
tp930
a(V/m/0llzx
p931
VSounds of things > Mechanisms > Sewing machine
p932
I37
I0
I3
I3
I43
I43
I0
tp933
a(V/m/0dl83
p934
VSounds of things > Miscellaneous sources > Arrow
p935
I37
I0
I0
I58
I95
I95
I-23
tp936
a(V/m/07qnq_y
p937
VSounds of things > Miscellaneous sources > Arrow > Thump, thud
p938
I6
I0
I3
I3
I12
I718
I60
tp939
a(V/t/dd00108
p940
VSounds of things > Miscellaneous sources > Arrow > Thump, thud > Clunk
p941
I2
I0
I4
I3
I9
I164
I63
tp942
a(V/m/07rrh0c
p943
VSounds of things > Miscellaneous sources > Arrow > Thump, thud > Thunk
p944
I7
I0
I4
I1
I12
I65
I53
tp945
a(V/m/07rqsjt
p946
VSounds of things > Miscellaneous sources > Arrow > Whoosh, swoosh, swish
p947
I34
I0
I3
I35
I72
I1464
I0
tp948
a(V/m/0790c
p949
VSounds of things > Miscellaneous sources > Sonar
p950
I3
I0
I7
I2
I12
I119
I60
tp951
a(V/m/02rr_
p952
VSounds of things > Miscellaneous sources > Sound equipment > Effects unit
p953
I7
I0
I0
I5
I12
I3120
I60
tp954
a(V/m/01vfsf
p955
VSounds of things > Miscellaneous sources > Sound equipment > Guitar amplifier
p956
I9
I0
I1
I2
I12
I134
I60
tp957
a(V/m/018w8
p958
VSounds of things > Specific impact sounds > Basketball bounce
p959
I7
I0
I1
I4
I12
I152
I60
tp960
a(V/m/07k1x
p961
VSounds of things > Tools
p962
I62
I2
I0
I20
I84
I813
I-12
tp963
a(V/m/02p01q
p964
VSounds of things > Tools > Filing (rasp)
p965
I26
I2
I0
I68
I96
I127
I-24
tp966
a(V/m/03l9g
p967
VSounds of things > Tools > Hammer
p968
I35
I6
I0
I43
I84
I715
I-12
tp969
a(V/m/03p19w
p970
VSounds of things > Tools > Jackhammer
p971
I27
I13
I2
I42
I84
I126
I-12
tp972
a(V/m/01d380
p973
VSounds of things > Tools > Power tool > Drill
p974
I38
I3
I3
I28
I72
I350
I0
tp975
a(V/m/023vsd
p976
VSounds of things > Tools > Sanding
p977
I14
I1
I2
I67
I84
I153
I-12
tp978
a(V/m/01b82r
p979
VSounds of things > Tools > Sawing
p980
I35
I5
I0
I67
I107
I823
I-35
tp981
a(V/m/07yv9
p982
VSounds of things > Vehicle
p983
I302
I53
I12
I65
I432
I1330
I-360
tp984
a(V/m/0k5j
p985
VSounds of things > Vehicle > Aircraft
p986
I54
I5
I3
I10
I72
I400
I0
tp987
a(V/m/014yck
p988
VSounds of things > Vehicle > Aircraft > Aircraft engine
p989
I71
I0
I4
I7
I82
I82
I-10
tp990
a(V/m/04229
p991
VSounds of things > Vehicle > Aircraft > Aircraft engine > Jet engine
p992
I10
I0
I0
I2
I12
I90
I60
tp993
a(V/m/0cmf2
p994
VSounds of things > Vehicle > Aircraft > Fixed-wing aircraft, airplane
p995
I8
I0
I2
I2
I12
I569
I60
tp996
a(V/m/09ct_
p997
VSounds of things > Vehicle > Aircraft > Helicopter
p998
I6
I0
I3
I3
I12
I376
I60
tp999
a(V/m/019jd
p1000
VSounds of things > Vehicle > Boat, Water vehicle
p1001
I74
I25
I37
I32
I168
I422
I-96
tp1002
a(V/m/06q74
p1003
VSounds of things > Vehicle > Boat, Water vehicle > Ship
p1004
I1
I0
I5
I6
I12
I564
I60
tp1005
a(V/m/012f08
p1006
VSounds of things > Vehicle > Motor vehicle (road)
p1007
I342
I65
I31
I188
I626
I614
I-554
tp1008
a(V/m/01bjv
p1009
VSounds of things > Vehicle > Motor vehicle (road) > Bus
p1010
I140
I27
I2
I35
I204
I527
I-132
tp1011
a(V/m/0k4j
p1012
VSounds of things > Vehicle > Motor vehicle (road) > Car
p1013
I82
I15
I5
I30
I132
I3440
I-60
tp1014
a(V/m/02mfyn
p1015
VSounds of things > Vehicle > Motor vehicle (road) > Car > Car alarm
p1016
I18
I1
I2
I24
I45
I45
I0
tp1017
a(V/t/dd00134
p1018
VSounds of things > Vehicle > Motor vehicle (road) > Car > Car passing by
p1019
I101
I16
I0
I27
I144
I212
I-72
tp1020
a(V/m/0ltv
p1021
VSounds of things > Vehicle > Motor vehicle (road) > Car > Race car, auto racing
p1022
I73
I3
I4
I64
I144
I383
I-72
tp1023
a(V/m/07rknqz
p1024
VSounds of things > Vehicle > Motor vehicle (road) > Car > Skidding
p1025
I15
I5
I3
I95
I118
I106
I-46
tp1026
a(V/m/0912c9
p1027
VSounds of things > Vehicle > Motor vehicle (road) > Car > Vehicle horn, car horn, honking
p1028
I92
I6
I2
I32
I132
I206
I-60
tp1029
a(V/m/012n7d
p1030
VSounds of things > Vehicle > Motor vehicle (road) > Emergency vehicle > Ambulance (siren)
p1031
I59
I2
I2
I21
I84
I84
I-12
tp1032
a(V/m/04qvtq
p1033
VSounds of things > Vehicle > Motor vehicle (road) > Emergency vehicle > Police car (siren)
p1034
I79
I7
I1
I54
I141
I141
I-69
tp1035
a(V/m/04_sv
p1036
VSounds of things > Vehicle > Motor vehicle (road) > Motorcycle
p1037
I51
I4
I3
I14
I72
I393
I0
tp1038
a(V/m/0btp2
p1039
VSounds of things > Vehicle > Motor vehicle (road) > Traffic noise, roadway noise
p1040
I49
I1
I1
I21
I72
I606
I0
tp1041
a(V/m/07r04
p1042
VSounds of things > Vehicle > Motor vehicle (road) > Truck
p1043
I34
I7
I6
I25
I72
I450
I0
tp1044
a(V/m/0199g
p1045
VSounds of things > Vehicle > Non-motorized land vehicle > Bicycle
p1046
I44
I14
I7
I31
I96
I410
I-24
tp1047
a(V/m/06_fw
p1048
VSounds of things > Vehicle > Non-motorized land vehicle > Skateboard
p1049
I54
I6
I7
I41
I108
I248
I-36
tp1050
a(V/m/0195fx
p1051
VSounds of things > Vehicle > Rail transport > Subway, metro, underground
p1052
I70
I20
I3
I63
I156
I1182
I-84
tp1053
a(V/m/07jdr
p1054
VSounds of things > Vehicle > Rail transport > Train
p1055
I60
I5
I10
I21
I96
I2374
I-24
tp1056
a(V/m/0284vy3
p1057
VSounds of things > Vehicle > Rail transport > Train > Train horn
p1058
I51
I3
I4
I11
I69
I69
I0
tp1059
a(V/m/04zmvq
p1060
VSounds of things > Vehicle > Rail transport > Train > Train whistle
p1061
I51
I0
I7
I26
I84
I84
I-12
tp1062
a(V/m/083vt
p1063
VSounds of things > Wood
p1064
I13
I0
I4
I31
I48
I4682
I24
tp1065
a(V/m/07pczhz
p1066
VSounds of things > Wood > Chop
p1067
I5
I0
I0
I7
I12
I80
I60
tp1068
a(V/m/07qs1cx
p1069
VSounds of things > Wood > Crack
p1070
I9
I0
I3
I12
I24
I1209
I48
tp1071
a(V/m/07pc8l3
p1072
VSounds of things > Wood > Snap
p1073
I11
I0
I4
I9
I24
I1132
I48
tp1074
a(V/m/07pl1bw
p1075
VSounds of things > Wood > Splinter
p1076
I4
I0
I0
I1
I5
I159
I67
tp1077
a(V/t/dd00112
p1078
VSource-ambiguous sounds > Deformable shell > Crumpling, crinkling
p1079
I11
I0
I0
I1
I12
I406
I60
tp1080
a(V/m/07plct2
p1081
VSource-ambiguous sounds > Deformable shell > Crushing
p1082
I7
I0
I1
I3
I11
I1470
I61
tp1083
a(V/m/07qcx4z
p1084
VSource-ambiguous sounds > Deformable shell > Tearing
p1085
I5
I0
I0
I6
I11
I837
I61
tp1086
a(V/m/07pws3f
p1087
VSource-ambiguous sounds > Generic impact sounds > Bang
p1088
I5
I0
I3
I4
I12
I2547
I60
tp1089
a(V/m/07pqn27
p1090
VSource-ambiguous sounds > Generic impact sounds > Bouncing
p1091
I2
I0
I1
I8
I11
I597
I61
tp1092
a(V/m/07pc8lb
p1093
VSource-ambiguous sounds > Generic impact sounds > Breaking
p1094
I2
I0
I5
I1
I8
I1525
I64
tp1095
a(V/m/07ryjzk
p1096
VSource-ambiguous sounds > Generic impact sounds > Slap, smack
p1097
I7
I0
I1
I2
I10
I668
I62
tp1098
a(V/m/07pjjrj
p1099
VSource-ambiguous sounds > Generic impact sounds > Smash, crash
p1100
I3
I0
I2
I2
I7
I1528
I65
tp1101
a(V/m/07rdhzs
p1102
VSource-ambiguous sounds > Generic impact sounds > Whack, thwack
p1103
I6
I0
I6
I0
I12
I77
I60
tp1104
a(V/m/07rbp7_
p1105
VSource-ambiguous sounds > Generic impact sounds > Whip
p1106
I0
I0
I2
I10
I12
I310
I60
tp1107
a(V/t/dd00121
p1108
VSource-ambiguous sounds > Onomatopoeia > Boing
p1109
I63
I0
I3
I66
I132
I333
I-60
tp1110
a(V/m/02fs_r
p1111
VSource-ambiguous sounds > Onomatopoeia > Brief tone > Beep, bleep
p1112
I16
I1
I4
I27
I48
I3126
I24
tp1113
a(V/m/07rv4dm
p1114
VSource-ambiguous sounds > Onomatopoeia > Brief tone > Clang
p1115
I9
I0
I2
I1
I12
I1281
I60
tp1116
a(V/m/07phxs1
p1117
VSource-ambiguous sounds > Onomatopoeia > Brief tone > Ding
p1118
I9
I0
I0
I3
I12
I963
I60
tp1119
a(V/m/07qwdck
p1120
VSource-ambiguous sounds > Onomatopoeia > Brief tone > Ping
p1121
I1
I0
I7
I4
I12
I961
I60
tp1122
a(V/m/07q8k13
p1123
VSource-ambiguous sounds > Onomatopoeia > Brief tone > Screech
p1124
I0
I0
I5
I7
I12
I611
I60
tp1125
a(V/m/07s02z0
p1126
VSource-ambiguous sounds > Onomatopoeia > Brief tone > Squeal
p1127
I4
I0
I4
I4
I12
I277
I60
tp1128
a(V/m/07rpk1c
p1129
VSource-ambiguous sounds > Onomatopoeia > Brief tone > Twang
p1130
I2
I0
I3
I6
I11
I195
I61
tp1131
a(V/m/07qmpdm
p1132
VSource-ambiguous sounds > Onomatopoeia > Clatter
p1133
I49
I7
I12
I4
I72
I356
I0
tp1134
a(V/m/07qc9xj
p1135
VSource-ambiguous sounds > Onomatopoeia > Clicking
p1136
I41
I4
I8
I19
I72
I4921
I0
tp1137
a(V/m/07qh7jl
p1138
VSource-ambiguous sounds > Onomatopoeia > Creak
p1139
I34
I10
I4
I24
I72
I1361
I0
tp1140
a(V/m/07s12q4
p1141
VSource-ambiguous sounds > Onomatopoeia > Crunch
p1142
I34
I2
I8
I28
I72
I1105
I0
tp1143
a(V/t/dd00118
p1144
VSource-ambiguous sounds > Onomatopoeia > Fizz
p1145
I21
I8
I10
I33
I72
I220
I0
tp1146
a(V/m/07rcgpl
p1147
VSource-ambiguous sounds > Onomatopoeia > Hum
p1148
I37
I3
I7
I24
I71
I1045
I1
tp1149
a(V/m/07qfgpx
p1150
VSource-ambiguous sounds > Onomatopoeia > Jingle, tinkle
p1151
I36
I0
I0
I35
I71
I913
I1
tp1152
a(V/m/07qyrcz
p1153
VSource-ambiguous sounds > Onomatopoeia > Plop
p1154
I24
I0
I3
I45
I72
I1810
I0
tp1155
a(V/m/07q34h3
p1156
VSource-ambiguous sounds > Onomatopoeia > Puff
p1157
I18
I1
I3
I26
I48
I81
I24
tp1158
a(V/m/07phhsh
p1159
VSource-ambiguous sounds > Onomatopoeia > Rumble
p1160
I5
I0
I1
I6
I12
I1215
I60
tp1161
a(V/m/07qwyj0
p1162
VSource-ambiguous sounds > Onomatopoeia > Rustle
p1163
I8
I0
I2
I2
I12
I714
I60
tp1164
a(V/m/07p9k1k
p1165
VSource-ambiguous sounds > Onomatopoeia > Sizzle
p1166
I0
I0
I0
I1
I1
I297
I71
tp1167
a(V/m/07s34ls
p1168
VSource-ambiguous sounds > Onomatopoeia > Whir
p1169
I8
I0
I1
I3
I12
I180
I60
tp1170
a(V/m/07pt_g0
p1171
VSource-ambiguous sounds > Other sourceless > Pulse
p1172
I13
I2
I7
I50
I72
I756
I0
tp1173
a(V/m/0hdsk
p1174
VSource-ambiguous sounds > Other sourceless > Sine wave > Chirp tone
p1175
I0
I0
I0
I5
I5
I339
I67
tp1176
a(V/m/0c1dj
p1177
VSource-ambiguous sounds > Other sourceless > Sound effect
p1178
I11
I0
I0
I1
I12
I17968
I60
tp1179
a(V/m/07pt6mm
p1180
VSource-ambiguous sounds > Surface contact > Grind
p1181
I1
I0
I4
I5
I10
I469
I62
tp1182
a(V/m/07s8j8t
p1183
VSource-ambiguous sounds > Surface contact > Roll
p1184
I7
I0
I1
I2
I10
I791
I62
tp1185
a(V/m/07pdjhy
p1186
VSource-ambiguous sounds > Surface contact > Rub
p1187
I8
I0
I1
I3
I12
I683
I60
tp1188
a(V/m/07qv4k0
p1189
VSource-ambiguous sounds > Surface contact > Scrape
p1190
I8
I0
I1
I3
I12
I1313
I60
tp1191
a(V/m/07qb_dv
p1192
VSource-ambiguous sounds > Surface contact > Scratch
p1193
I5
I0
I2
I4
I11
I878
I61
tp1194
a.